; Function Attrs: mustprogress uwtable
define hidden noundef zeroext i1 @_ZN6google8protobuf8internal22MessageSetFieldSkipper19SkipMessageSetFieldEPNS0_2io16CodedInputStreamEi(ptr noundef nonnull readonly align 8 captures(none) dereferenceable(16) %0, ptr noundef %1, i32 noundef %2) unnamed_addr #3 align 2 {
  %4 = load ptr, ptr %1, align 8, !tbaa !3
  %5 = getelementptr inbounds nuw i8, ptr %1, i64 8
  %6 = load ptr, ptr %5, align 8, !tbaa !14
  %7 = icmp ult ptr %4, %6
  br i1 %7, label %8, label %_ZN6google8protobuf2io16CodedInputStream12ReadVarint32EPj.exit, !prof !15

8:                                                ; preds = %3
  %9 = load i8, ptr %4, align 1, !tbaa !16
  %10 = zext i8 %9 to i32
  %11 = icmp sgt i8 %9, -1
  br i1 %11, label %_ZN6google8protobuf2io16CodedInputStream12ReadVarint32EPj.exit.thread, label %_ZN6google8protobuf2io16CodedInputStream12ReadVarint32EPj.exit

_ZN6google8protobuf2io16CodedInputStream12ReadVarint32EPj.exit.thread: ; preds = %8
  %12 = getelementptr inbounds nuw i8, ptr %4, i64 1
  store ptr %12, ptr %1, align 8, !tbaa !3
  br label %16

_ZN6google8protobuf2io16CodedInputStream12ReadVarint32EPj.exit: ; preds = %3, %8
  %.08.i = phi i32 [ %10, %8 ], [ 0, %3 ]
  %13 = tail call noundef i64 @_ZN6google8protobuf2io16CodedInputStream20ReadVarint32FallbackEj(ptr noundef nonnull align 8 dereferenceable(80) %1, i32 noundef %.08.i)
  %14 = trunc i64 %13 to i32
  %15 = icmp sgt i64 %13, -1
  br i1 %15, label %16, label %_ZN6google8protobuf2io16CodedInputStream4SkipEi.exit

16:                                               ; preds = %_ZN6google8protobuf2io16CodedInputStream12ReadVarint32EPj.exit.thread, %_ZN6google8protobuf2io16CodedInputStream12ReadVarint32EPj.exit
  %.0811 = phi i32 [ %10, %_ZN6google8protobuf2io16CodedInputStream12ReadVarint32EPj.exit.thread ], [ %14, %_ZN6google8protobuf2io16CodedInputStream12ReadVarint32EPj.exit ]
  %17 = getelementptr inbounds nuw i8, ptr %0, i64 8
  %18 = load ptr, ptr %17, align 8, !tbaa !17
  %19 = icmp eq ptr %18, null
  br i1 %19, label %20, label %34

20:                                               ; preds = %16
  %21 = icmp slt i32 %.0811, 0
  br i1 %21, label %_ZN6google8protobuf2io16CodedInputStream4SkipEi.exit, label %22

22:                                               ; preds = %20
  %23 = load ptr, ptr %5, align 8, !tbaa !14
  %24 = load ptr, ptr %1, align 8, !tbaa !3
  %25 = ptrtoint ptr %23 to i64
  %26 = ptrtoint ptr %24 to i64
  %27 = sub i64 %25, %26
  %28 = trunc i64 %27 to i32
  %.not.i = icmp sgt i32 %.0811, %28
  br i1 %.not.i, label %32, label %29

29:                                               ; preds = %22
  %30 = zext nneg i32 %.0811 to i64
  %31 = getelementptr inbounds nuw i8, ptr %24, i64 %30
  store ptr %31, ptr %1, align 8, !tbaa !3
  br label %_ZN6google8protobuf2io16CodedInputStream4SkipEi.exit

32:                                               ; preds = %22
  %33 = tail call noundef zeroext i1 @_ZN6google8protobuf2io16CodedInputStream12SkipFallbackEii(ptr noundef nonnull align 8 dereferenceable(80) %1, i32 noundef %.0811, i32 noundef %28)
  br label %_ZN6google8protobuf2io16CodedInputStream4SkipEi.exit

34:                                               ; preds = %16
  %35 = tail call noundef ptr @_ZN6google8protobuf15UnknownFieldSet18AddLengthDelimitedB5cxx11Ei(ptr noundef nonnull align 8 dereferenceable(24) %18, i32 noundef %2)
  %36 = tail call noundef zeroext i1 @_ZN6google8protobuf2io16CodedInputStream10ReadStringEPNSt7__cxx1112basic_stringIcSt11char_traitsIcESaIcEEEi(ptr noundef nonnull align 8 dereferenceable(80) %1, ptr noundef %35, i32 noundef %.0811)
  br label %_ZN6google8protobuf2io16CodedInputStream4SkipEi.exit

_ZN6google8protobuf2io16CodedInputStream4SkipEi.exit: ; preds = %32, %29, %20, %_ZN6google8protobuf2io16CodedInputStream12ReadVarint32EPj.exit, %34
  %.0 = phi i1 [ %36, %34 ], [ false, %_ZN6google8protobuf2io16CodedInputStream12ReadVarint32EPj.exit ], [ false, %20 ], [ true, %29 ], [ %33, %32 ]
  ret i1 %.0
}